; Function Attrs: mustprogress nounwind uwtable
define hidden void @_ZN11StringDedup4Stat18report_phase_startEPKc(ptr nocapture noundef nonnull writeonly align 8 dereferenceable(248) %0, ptr noundef %1) local_unnamed_addr #2 align 2 {
  %3 = load volatile ptr, ptr getelementptr inbounds (i8, ptr @_ZN16LogTagSetMappingILN6LogTag4typeE148ELS1_114ELS1_142ELS1_0ELS1_0ELS1_0EE7_tagsetE, i64 56), align 8
  %.not = icmp eq ptr %3, null
  br i1 %.not, label %5, label %4

4:                                                ; preds = %2
  tail call void (ptr, ...) @_ZN7LogImplILN6LogTag4typeE148ELS1_114ELS1_142ELS1_0ELS1_0ELS1_0EE5writeILN8LogLevel4typeE2EEEvPKcz(ptr noundef nonnull @.str.6, ptr noundef %1)
  br label %5

5:                                                ; preds = %2, %4
  %6 = tail call { i64, i64 } @_ZN29CompositeElapsedCounterSource3nowEv() #7
  %7 = extractvalue { i64, i64 } %6, 0
  %8 = extractvalue { i64, i64 } %6, 1
  %9 = getelementptr inbounds i8, ptr %0, i64 168
  store i64 %7, ptr %9, align 8
  %.sroa.2.0..sroa_idx = getelementptr inbounds i8, ptr %0, i64 176
  store i64 %8, ptr %.sroa.2.0..sroa_idx, align 8
  ret void
}